target datalayout = "e-m:e-p270:32:32-p271:32:32-p272:64:64-i64:64-i128:128-f80:128-n8:16:32:64-S128"
target triple = "x86_64-pc-linux-gnu"

%"class.std::shared_ptr" = type { %"class.std::__shared_ptr" }
%"class.std::__shared_ptr" = type { ptr, %"class.std::__shared_count" }
%"class.std::__shared_count" = type { ptr }
%"class.open_spiel::dots_and_boxes::Move" = type { i32, i32, i32, i32, i32 }
%"class.open_spiel::dots_and_boxes::DotsAndBoxesState" = type <{ %"class.open_spiel::State.base", [4 x i8], %"class.std::vector.9", %"class.std::vector.9", %"class.std::vector.9", i32, i32, i32, i32, i32, i32, %"struct.std::array", i8, [7 x i8] }>
%"class.open_spiel::State.base" = type <{ ptr, %"class.std::shared_ptr", i32, i32, %"class.std::vector", i32 }>
%"class.std::vector" = type { %"struct.std::_Vector_base" }
%"struct.std::_Vector_base" = type { %"struct.std::_Vector_base<open_spiel::State::PlayerAction, std::allocator<open_spiel::State::PlayerAction>>::_Vector_impl" }
%"struct.std::_Vector_base<open_spiel::State::PlayerAction, std::allocator<open_spiel::State::PlayerAction>>::_Vector_impl" = type { %"struct.std::_Vector_base<open_spiel::State::PlayerAction, std::allocator<open_spiel::State::PlayerAction>>::_Vector_impl_data" }
%"struct.std::_Vector_base<open_spiel::State::PlayerAction, std::allocator<open_spiel::State::PlayerAction>>::_Vector_impl_data" = type { ptr, ptr, ptr }
%"class.std::vector.9" = type { %"struct.std::_Vector_base.10" }
%"struct.std::_Vector_base.10" = type { %"struct.std::_Vector_base<open_spiel::dots_and_boxes::CellState, std::allocator<open_spiel::dots_and_boxes::CellState>>::_Vector_impl" }
%"struct.std::_Vector_base<open_spiel::dots_and_boxes::CellState, std::allocator<open_spiel::dots_and_boxes::CellState>>::_Vector_impl" = type { %"struct.std::_Vector_base<open_spiel::dots_and_boxes::CellState, std::allocator<open_spiel::dots_and_boxes::CellState>>::_Vector_impl_data" }
%"struct.std::_Vector_base<open_spiel::dots_and_boxes::CellState, std::allocator<open_spiel::dots_and_boxes::CellState>>::_Vector_impl_data" = type { ptr, ptr, ptr }
%"struct.std::array" = type { [2 x i32] }
%"class.open_spiel::State" = type <{ ptr, %"class.std::shared_ptr", i32, i32, %"class.std::vector", i32, [4 x i8] }>
%"struct.open_spiel::State::PlayerAction" = type { i32, i64 }

@_ZN10open_spiel14dots_and_boxes4MoveC1Elii = unnamed_addr alias void (ptr, i64, i32, i32), ptr @_ZN10open_spiel14dots_and_boxes4MoveC2Elii

; Function Attrs: mustprogress nounwind uwtable
define linkonce_odr void @_ZNSt15__new_allocatorIN10open_spiel5State12PlayerActionEE7destroyIS2_EEvPT_(ptr noundef nonnull align 1 dereferenceable(1) %0, ptr noundef %1) #5 comdat align 2 {
  %3 = alloca ptr, align 8
  %4 = alloca ptr, align 8
  store ptr %0, ptr %3, align 8
  store ptr %1, ptr %4, align 8
  ret void
}

; Function Attrs: mustprogress nounwind uwtable
define linkonce_odr void @_ZNSt16allocator_traitsISaIN10open_spiel5State12PlayerActionEEE7destroyIS2_EEvRS3_PT_(ptr noundef nonnull align 1 dereferenceable(1) %0, ptr noundef %1) #5 comdat align 2 {
  %3 = alloca ptr, align 8
  %4 = alloca ptr, align 8
  store ptr %0, ptr %3, align 8
  store ptr %1, ptr %4, align 8
  %5 = load ptr, ptr %3, align 8
  %6 = load ptr, ptr %4, align 8
  call void @_ZNSt15__new_allocatorIN10open_spiel5State12PlayerActionEE7destroyIS2_EEvPT_(ptr noundef nonnull align 1 dereferenceable(1) %5, ptr noundef %6) #3
  ret void
}

; Function Attrs: mustprogress nounwind uwtable
define linkonce_odr noundef nonnull align 4 dereferenceable(4) ptr @_ZNSt14__array_traitsIiLm2EE6_S_refERA2_Kim(ptr noundef nonnull align 4 dereferenceable(8) %0, i64 noundef %1) #5 comdat align 2 {
  %3 = alloca ptr, align 8
  %4 = alloca i64, align 8
  store ptr %0, ptr %3, align 8
  store i64 %1, ptr %4, align 8
  %5 = load ptr, ptr %3, align 8
  %6 = load i64, ptr %4, align 8
  %7 = getelementptr inbounds [2 x i32], ptr %5, i64 0, i64 %6
  ret ptr %7
}

; Function Attrs: mustprogress nounwind uwtable
define linkonce_odr void @_ZNSt6vectorIN10open_spiel5State12PlayerActionESaIS2_EE8pop_backEv(ptr noundef nonnull align 8 dereferenceable(24) %0) #5 comdat align 2 {
  %2 = alloca ptr, align 8
  store ptr %0, ptr %2, align 8
  %3 = load ptr, ptr %2, align 8
  %4 = getelementptr inbounds nuw %"struct.std::_Vector_base", ptr %3, i32 0, i32 0
  %5 = getelementptr inbounds nuw %"struct.std::_Vector_base<open_spiel::State::PlayerAction, std::allocator<open_spiel::State::PlayerAction>>::_Vector_impl_data", ptr %4, i32 0, i32 1
  %6 = load ptr, ptr %5, align 8
  %7 = getelementptr inbounds %"struct.open_spiel::State::PlayerAction", ptr %6, i32 -1
  store ptr %7, ptr %5, align 8
  %8 = getelementptr inbounds nuw %"struct.std::_Vector_base", ptr %3, i32 0, i32 0
  %9 = getelementptr inbounds nuw %"struct.std::_Vector_base", ptr %3, i32 0, i32 0
  %10 = getelementptr inbounds nuw %"struct.std::_Vector_base<open_spiel::State::PlayerAction, std::allocator<open_spiel::State::PlayerAction>>::_Vector_impl_data", ptr %9, i32 0, i32 1
  %11 = load ptr, ptr %10, align 8
  call void @_ZNSt16allocator_traitsISaIN10open_spiel5State12PlayerActionEEE7destroyIS2_EEvRS3_PT_(ptr noundef nonnull align 1 dereferenceable(1) %8, ptr noundef %11) #3
  ret void
}

; Function Attrs: mustprogress nounwind uwtable
define linkonce_odr noundef nonnull align 4 dereferenceable(4) ptr @_ZNSt5arrayIiLm2EEixEm(ptr noundef nonnull align 4 dereferenceable(8) %0, i64 noundef %1) #5 comdat align 2 {
  %3 = alloca ptr, align 8
  %4 = alloca i64, align 8
  store ptr %0, ptr %3, align 8
  store i64 %1, ptr %4, align 8
  %5 = load ptr, ptr %3, align 8
  %6 = getelementptr inbounds nuw %"struct.std::array", ptr %5, i32 0, i32 0
  %7 = load i64, ptr %4, align 8
  %8 = call noundef nonnull align 4 dereferenceable(4) ptr @_ZNSt14__array_traitsIiLm2EE6_S_refERA2_Kim(ptr noundef nonnull align 4 dereferenceable(8) %6, i64 noundef %7) #3
  ret ptr %8
}

; Function Attrs: mustprogress nounwind uwtable
define linkonce_odr noundef nonnull align 4 dereferenceable(4) ptr @_ZNSt6vectorIN10open_spiel14dots_and_boxes9CellStateESaIS2_EEixEm(ptr noundef nonnull align 8 dereferenceable(24) %0, i64 noundef %1) #5 comdat align 2 {
  %3 = alloca ptr, align 8
  %4 = alloca i64, align 8
  store ptr %0, ptr %3, align 8
  store i64 %1, ptr %4, align 8
  %5 = load ptr, ptr %3, align 8
  %6 = getelementptr inbounds nuw %"struct.std::_Vector_base.10", ptr %5, i32 0, i32 0
  %7 = getelementptr inbounds nuw %"struct.std::_Vector_base<open_spiel::dots_and_boxes::CellState, std::allocator<open_spiel::dots_and_boxes::CellState>>::_Vector_impl_data", ptr %6, i32 0, i32 0
  %8 = load ptr, ptr %7, align 8
  %9 = load i64, ptr %4, align 8
  %10 = getelementptr inbounds i32, ptr %8, i64 %9
  ret ptr %10
}

; Function Attrs: mustprogress nounwind uwtable
define noundef i32 @_ZN10open_spiel14dots_and_boxes4Move7GetCellEv(ptr noundef nonnull align 4 dereferenceable(20) %0) #5 align 2 {
  %2 = alloca ptr, align 8
  store ptr %0, ptr %2, align 8
  %3 = load ptr, ptr %2, align 8
  %4 = getelementptr inbounds nuw %"class.open_spiel::dots_and_boxes::Move", ptr %3, i32 0, i32 0
  %5 = load i32, ptr %4, align 4
  %6 = getelementptr inbounds nuw %"class.open_spiel::dots_and_boxes::Move", ptr %3, i32 0, i32 4
  %7 = load i32, ptr %6, align 4
  %8 = add nsw i32 %7, 1
  %9 = mul nsw i32 %5, %8
  %10 = getelementptr inbounds nuw %"class.open_spiel::dots_and_boxes::Move", ptr %3, i32 0, i32 1
  %11 = load i32, ptr %10, align 4
  %12 = add nsw i32 %9, %11
  ret i32 %12
}

; Function Attrs: mustprogress uwtable
define void @_ZN10open_spiel14dots_and_boxes17DotsAndBoxesState10UndoActionEil(ptr noundef nonnull align 8 dereferenceable(169) %0, i32 noundef %1, i64 noundef %2) unnamed_addr #4 align 2 {
  %4 = alloca ptr, align 8
  %5 = alloca i32, align 4
  %6 = alloca i64, align 8
  %7 = alloca %"class.open_spiel::dots_and_boxes::Move", align 4
  %8 = alloca i32, align 4
  store ptr %0, ptr %4, align 8
  store i32 %1, ptr %5, align 4
  store i64 %2, ptr %6, align 8
  %9 = load ptr, ptr %4, align 8
  %10 = load i64, ptr %6, align 8
  %11 = getelementptr inbounds nuw %"class.open_spiel::dots_and_boxes::DotsAndBoxesState", ptr %9, i32 0, i32 8
  %12 = load i32, ptr %11, align 4
  %13 = getelementptr inbounds nuw %"class.open_spiel::dots_and_boxes::DotsAndBoxesState", ptr %9, i32 0, i32 9
  %14 = load i32, ptr %13, align 8
  call void @_ZN10open_spiel14dots_and_boxes4MoveC1Elii(ptr noundef nonnull align 4 dereferenceable(20) %7, i64 noundef %10, i32 noundef %12, i32 noundef %14)
  %15 = call noundef i32 @_ZN10open_spiel14dots_and_boxes4Move7GetCellEv(ptr noundef nonnull align 4 dereferenceable(20) %7)
  store i32 %15, ptr %8, align 4
  %16 = getelementptr inbounds nuw %"class.open_spiel::dots_and_boxes::DotsAndBoxesState", ptr %9, i32 0, i32 4
  %17 = load i32, ptr %8, align 4
  %18 = sext i32 %17 to i64
  %19 = call noundef nonnull align 4 dereferenceable(4) ptr @_ZNSt6vectorIN10open_spiel14dots_and_boxes9CellStateESaIS2_EEixEm(ptr noundef nonnull align 8 dereferenceable(24) %16, i64 noundef %18) #3
  %20 = load i32, ptr %19, align 4
  %21 = icmp ne i32 %20, 0
  br i1 %21, label %22, label %30

22:                                               ; preds = %3
  %23 = getelementptr inbounds nuw %"class.open_spiel::dots_and_boxes::DotsAndBoxesState", ptr %9, i32 0, i32 11
  %24 = getelementptr inbounds nuw %"class.open_spiel::dots_and_boxes::DotsAndBoxesState", ptr %9, i32 0, i32 5
  %25 = load i32, ptr %24, align 8
  %26 = sext i32 %25 to i64
  %27 = call noundef nonnull align 4 dereferenceable(4) ptr @_ZNSt5arrayIiLm2EEixEm(ptr noundef nonnull align 4 dereferenceable(8) %23, i64 noundef %26) #3
  %28 = load i32, ptr %27, align 4
  %29 = add nsw i32 %28, -1
  store i32 %29, ptr %27, align 4
  br label %30

30:                                               ; preds = %22, %3
  %31 = getelementptr inbounds nuw %"class.open_spiel::dots_and_boxes::DotsAndBoxesState", ptr %9, i32 0, i32 3
  %32 = load i32, ptr %8, align 4
  %33 = sext i32 %32 to i64
  %34 = call noundef nonnull align 4 dereferenceable(4) ptr @_ZNSt6vectorIN10open_spiel14dots_and_boxes9CellStateESaIS2_EEixEm(ptr noundef nonnull align 8 dereferenceable(24) %31, i64 noundef %33) #3
  store i32 0, ptr %34, align 4
  %35 = getelementptr inbounds nuw %"class.open_spiel::dots_and_boxes::DotsAndBoxesState", ptr %9, i32 0, i32 2
  %36 = load i32, ptr %8, align 4
  %37 = sext i32 %36 to i64
  %38 = call noundef nonnull align 4 dereferenceable(4) ptr @_ZNSt6vectorIN10open_spiel14dots_and_boxes9CellStateESaIS2_EEixEm(ptr noundef nonnull align 8 dereferenceable(24) %35, i64 noundef %37) #3
  store i32 0, ptr %38, align 4
  %39 = getelementptr inbounds nuw %"class.open_spiel::dots_and_boxes::DotsAndBoxesState", ptr %9, i32 0, i32 4
  %40 = load i32, ptr %8, align 4
  %41 = sext i32 %40 to i64
  %42 = call noundef nonnull align 4 dereferenceable(4) ptr @_ZNSt6vectorIN10open_spiel14dots_and_boxes9CellStateESaIS2_EEixEm(ptr noundef nonnull align 8 dereferenceable(24) %39, i64 noundef %41) #3
  store i32 0, ptr %42, align 4
  %43 = load i32, ptr %5, align 4
  %44 = getelementptr inbounds nuw %"class.open_spiel::dots_and_boxes::DotsAndBoxesState", ptr %9, i32 0, i32 5
  store i32 %43, ptr %44, align 8
  %45 = getelementptr inbounds nuw %"class.open_spiel::dots_and_boxes::DotsAndBoxesState", ptr %9, i32 0, i32 6
  store i32 -3, ptr %45, align 4
  %46 = getelementptr inbounds nuw %"class.open_spiel::dots_and_boxes::DotsAndBoxesState", ptr %9, i32 0, i32 7
  %47 = load i32, ptr %46, align 8
  %48 = sub nsw i32 %47, 1
  store i32 %48, ptr %46, align 8
  %49 = getelementptr inbounds nuw %"class.open_spiel::State", ptr %9, i32 0, i32 4
  call void @_ZNSt6vectorIN10open_spiel5State12PlayerActionESaIS2_EE8pop_backEv(ptr noundef nonnull align 8 dereferenceable(24) %49) #3
  %50 = getelementptr inbounds nuw %"class.open_spiel::State", ptr %9, i32 0, i32 5
  %51 = load i32, ptr %50, align 8
  %52 = add nsw i32 %51, -1
  store i32 %52, ptr %50, align 8
  ret void
}