; Function Attrs: mustprogress uwtable
define void @_ZN10open_spiel14dots_and_boxes17DotsAndBoxesState10UndoActionEil(ptr nocapture noundef nonnull align 8 dereferenceable(169) %0, i32 noundef %1, i64 noundef %2) unnamed_addr #3 align 2 {
  %4 = alloca %"class.open_spiel::dots_and_boxes::Move", align 4
  %5 = getelementptr inbounds nuw i8, ptr %0, i64 148
  %6 = load i32, ptr %5, align 4
  %7 = getelementptr inbounds nuw i8, ptr %0, i64 152
  %8 = load i32, ptr %7, align 8
  call void @_ZN10open_spiel14dots_and_boxes4MoveC1Elii(ptr noundef nonnull align 4 dereferenceable(20) %4, i64 noundef %2, i32 noundef %6, i32 noundef %8)
  %9 = load i32, ptr %4, align 4
  %10 = getelementptr inbounds nuw i8, ptr %4, i64 16
  %11 = load i32, ptr %10, align 4
  %12 = add nsw i32 %11, 1
  %13 = mul nsw i32 %12, %9
  %14 = getelementptr inbounds nuw i8, ptr %4, i64 4
  %15 = load i32, ptr %14, align 4
  %16 = add nsw i32 %13, %15
  %17 = getelementptr inbounds nuw i8, ptr %0, i64 112
  %18 = sext i32 %16 to i64
  %19 = load ptr, ptr %17, align 8
  %20 = getelementptr inbounds i32, ptr %19, i64 %18
  %21 = load i32, ptr %20, align 4
  %.not = icmp eq i32 %21, 0
  br i1 %.not, label %30, label %22

22:                                               ; preds = %3
  %23 = getelementptr inbounds nuw i8, ptr %0, i64 160
  %24 = getelementptr inbounds nuw i8, ptr %0, i64 136
  %25 = load i32, ptr %24, align 8
  %26 = sext i32 %25 to i64
  %27 = getelementptr inbounds [2 x i32], ptr %23, i64 0, i64 %26
  %28 = load i32, ptr %27, align 4
  %29 = add nsw i32 %28, -1
  store i32 %29, ptr %27, align 4
  br label %30

30:                                               ; preds = %22, %3
  %31 = getelementptr inbounds nuw i8, ptr %0, i64 88
  %32 = load ptr, ptr %31, align 8
  %33 = getelementptr inbounds i32, ptr %32, i64 %18
  store i32 0, ptr %33, align 4
  %34 = getelementptr inbounds nuw i8, ptr %0, i64 64
  %35 = load ptr, ptr %34, align 8
  %36 = getelementptr inbounds i32, ptr %35, i64 %18
  store i32 0, ptr %36, align 4
  %37 = load ptr, ptr %17, align 8
  %38 = getelementptr inbounds i32, ptr %37, i64 %18
  store i32 0, ptr %38, align 4
  %39 = getelementptr inbounds nuw i8, ptr %0, i64 136
  store i32 %1, ptr %39, align 8
  %40 = getelementptr inbounds nuw i8, ptr %0, i64 140
  store i32 -3, ptr %40, align 4
  %41 = getelementptr inbounds nuw i8, ptr %0, i64 144
  %42 = load i32, ptr %41, align 8
  %43 = add nsw i32 %42, -1
  store i32 %43, ptr %41, align 8
  %44 = getelementptr inbounds i8, ptr %0, i64 40
  %45 = load ptr, ptr %44, align 8
  %46 = getelementptr inbounds i8, ptr %45, i64 -16
  store ptr %46, ptr %44, align 8
  %47 = getelementptr inbounds nuw i8, ptr %0, i64 56
  %48 = load i32, ptr %47, align 8
  %49 = add nsw i32 %48, -1
  store i32 %49, ptr %47, align 8
  ret void
}